; ModuleID = '7/647.c'
source_filename = "7/647.c"
target datalayout = "e-m:e-p270:32:32-p271:32:32-p272:64:64-i64:64-f80:128-n8:16:32:64-S128"
target triple = "x86_64-pc-linux-gnu"

@.str = private unnamed_addr constant [3 x i8] c"%c\00", align 1
@.str.1 = private unnamed_addr constant [3 x i8] c"%s\00", align 1

; Function Attrs: noinline nounwind uwtable
define dso_local i32 @main() #0 {
  %1 = alloca i32, align 4
  %2 = alloca i32, align 4
  %3 = alloca i32, align 4
  %4 = alloca i32, align 4
  %5 = alloca i32, align 4
  %6 = alloca i32, align 4
  %7 = alloca i32, align 4
  %8 = alloca [257 x i8], align 16
  %9 = alloca [257 x i8], align 16
  %10 = alloca [257 x i8], align 16
  store i32 0, i32* %1, align 4
  store i32 0, i32* %2, align 4
  store i32 0, i32* %6, align 4
  store i32 0, i32* %7, align 4
  %11 = getelementptr inbounds [257 x i8], [257 x i8]* %8, i64 0, i64 0
  %12 = call i32 (i8*, ...) bitcast (i32 (...)* @gets to i32 (i8*, ...)*)(i8* %11)
  %13 = getelementptr inbounds [257 x i8], [257 x i8]* %9, i64 0, i64 0
  %14 = call i32 (i8*, ...) bitcast (i32 (...)* @gets to i32 (i8*, ...)*)(i8* %13)
  %15 = getelementptr inbounds [257 x i8], [257 x i8]* %10, i64 0, i64 0
  %16 = call i32 (i8*, ...) bitcast (i32 (...)* @gets to i32 (i8*, ...)*)(i8* %15)
  store i32 0, i32* %3, align 4
  br label %17

17:                                               ; preds = %145, %0
  %18 = load i32, i32* %3, align 4
  %19 = sext i32 %18 to i64
  %20 = getelementptr inbounds [257 x i8], [257 x i8]* %8, i64 0, i64 0
  %21 = call i64 @strlen(i8* %20) #3
  %22 = icmp ult i64 %19, %21
  br i1 %22, label %23, label %148

23:                                               ; preds = %17
  %24 = load i32, i32* %2, align 4
  %25 = sext i32 %24 to i64
  %26 = getelementptr inbounds [257 x i8], [257 x i8]* %9, i64 0, i64 %25
  %27 = load i8, i8* %26, align 1
  %28 = sext i8 %27 to i32
  %29 = load i32, i32* %3, align 4
  %30 = sext i32 %29 to i64
  %31 = getelementptr inbounds [257 x i8], [257 x i8]* %8, i64 0, i64 %30
  %32 = load i8, i8* %31, align 1
  %33 = sext i8 %32 to i32
  %34 = icmp eq i32 %28, %33
  br i1 %34, label %35, label %130

35:                                               ; preds = %23
  store i32 0, i32* %4, align 4
  br label %36

36:                                               ; preds = %126, %35
  %37 = load i32, i32* %4, align 4
  %38 = sext i32 %37 to i64
  %39 = getelementptr inbounds [257 x i8], [257 x i8]* %9, i64 0, i64 0
  %40 = call i64 @strlen(i8* %39) #3
  %41 = icmp ult i64 %38, %40
  br i1 %41, label %42, label %129

42:                                               ; preds = %36
  %43 = load i32, i32* %2, align 4
  %44 = load i32, i32* %4, align 4
  %45 = add nsw i32 %43, %44
  %46 = sext i32 %45 to i64
  %47 = getelementptr inbounds [257 x i8], [257 x i8]* %9, i64 0, i64 %46
  %48 = load i8, i8* %47, align 1
  %49 = sext i8 %48 to i32
  %50 = load i32, i32* %3, align 4
  %51 = load i32, i32* %4, align 4
  %52 = add nsw i32 %50, %51
  %53 = sext i32 %52 to i64
  %54 = getelementptr inbounds [257 x i8], [257 x i8]* %8, i64 0, i64 %53
  %55 = load i8, i8* %54, align 1
  %56 = sext i8 %55 to i32
  %57 = icmp eq i32 %49, %56
  br i1 %57, label %58, label %61

58:                                               ; preds = %42
  %59 = load i32, i32* %6, align 4
  %60 = add nsw i32 %59, 1
  store i32 %60, i32* %6, align 4
  br label %61

61:                                               ; preds = %58, %42
  %62 = load i32, i32* %6, align 4
  %63 = sext i32 %62 to i64
  %64 = getelementptr inbounds [257 x i8], [257 x i8]* %9, i64 0, i64 0
  %65 = call i64 @strlen(i8* %64) #3
  %66 = icmp eq i64 %63, %65
  br i1 %66, label %67, label %125

67:                                               ; preds = %61
  store i32 0, i32* %5, align 4
  br label %68

68:                                               ; preds = %79, %67
  %69 = load i32, i32* %5, align 4
  %70 = load i32, i32* %3, align 4
  %71 = icmp slt i32 %69, %70
  br i1 %71, label %72, label %82

72:                                               ; preds = %68
  %73 = load i32, i32* %5, align 4
  %74 = sext i32 %73 to i64
  %75 = getelementptr inbounds [257 x i8], [257 x i8]* %8, i64 0, i64 %74
  %76 = load i8, i8* %75, align 1
  %77 = sext i8 %76 to i32
  %78 = call i32 (i8*, ...) @printf(i8* getelementptr inbounds ([3 x i8], [3 x i8]* @.str, i64 0, i64 0), i32 %77)
  br label %79

79:                                               ; preds = %72
  %80 = load i32, i32* %5, align 4
  %81 = add nsw i32 %80, 1
  store i32 %81, i32* %5, align 4
  br label %68

82:                                               ; preds = %68
  store i32 0, i32* %5, align 4
  br label %83

83:                                               ; preds = %96, %82
  %84 = load i32, i32* %5, align 4
  %85 = sext i32 %84 to i64
  %86 = getelementptr inbounds [257 x i8], [257 x i8]* %10, i64 0, i64 0
  %87 = call i64 @strlen(i8* %86) #3
  %88 = icmp ult i64 %85, %87
  br i1 %88, label %89, label %99

89:                                               ; preds = %83
  %90 = load i32, i32* %5, align 4
  %91 = sext i32 %90 to i64
  %92 = getelementptr inbounds [257 x i8], [257 x i8]* %10, i64 0, i64 %91
  %93 = load i8, i8* %92, align 1
  %94 = sext i8 %93 to i32
  %95 = call i32 (i8*, ...) @printf(i8* getelementptr inbounds ([3 x i8], [3 x i8]* @.str, i64 0, i64 0), i32 %94)
  br label %96

96:                                               ; preds = %89
  %97 = load i32, i32* %5, align 4
  %98 = add nsw i32 %97, 1
  store i32 %98, i32* %5, align 4
  br label %83

99:                                               ; preds = %83
  %100 = load i32, i32* %3, align 4
  %101 = sext i32 %100 to i64
  %102 = getelementptr inbounds [257 x i8], [257 x i8]* %9, i64 0, i64 0
  %103 = call i64 @strlen(i8* %102) #3
  %104 = add i64 %101, %103
  %105 = trunc i64 %104 to i32
  store i32 %105, i32* %5, align 4
  br label %106

106:                                              ; preds = %119, %99
  %107 = load i32, i32* %5, align 4
  %108 = sext i32 %107 to i64
  %109 = getelementptr inbounds [257 x i8], [257 x i8]* %8, i64 0, i64 0
  %110 = call i64 @strlen(i8* %109) #3
  %111 = icmp ult i64 %108, %110
  br i1 %111, label %112, label %122

112:                                              ; preds = %106
  %113 = load i32, i32* %5, align 4
  %114 = sext i32 %113 to i64
  %115 = getelementptr inbounds [257 x i8], [257 x i8]* %8, i64 0, i64 %114
  %116 = load i8, i8* %115, align 1
  %117 = sext i8 %116 to i32
  %118 = call i32 (i8*, ...) @printf(i8* getelementptr inbounds ([3 x i8], [3 x i8]* @.str, i64 0, i64 0), i32 %117)
  br label %119

119:                                              ; preds = %112
  %120 = load i32, i32* %5, align 4
  %121 = add nsw i32 %120, 1
  store i32 %121, i32* %5, align 4
  br label %106

122:                                              ; preds = %106
  %123 = load i32, i32* %7, align 4
  %124 = add nsw i32 %123, 1
  store i32 %124, i32* %7, align 4
  br label %129

125:                                              ; preds = %61
  br label %126

126:                                              ; preds = %125
  %127 = load i32, i32* %4, align 4
  %128 = add nsw i32 %127, 1
  store i32 %128, i32* %4, align 4
  br label %36

129:                                              ; preds = %122, %36
  br label %130

130:                                              ; preds = %129, %23
  %131 = load i32, i32* %7, align 4
  %132 = icmp eq i32 %131, 1
  br i1 %132, label %133, label %134

133:                                              ; preds = %130
  br label %148

134:                                              ; preds = %130
  %135 = load i32, i32* %3, align 4
  %136 = sext i32 %135 to i64
  %137 = getelementptr inbounds [257 x i8], [257 x i8]* %8, i64 0, i64 0
  %138 = call i64 @strlen(i8* %137) #3
  %139 = sub i64 %138, 1
  %140 = icmp eq i64 %136, %139
  br i1 %140, label %141, label %144

141:                                              ; preds = %134
  %142 = getelementptr inbounds [257 x i8], [257 x i8]* %8, i64 0, i64 0
  %143 = call i32 (i8*, ...) @printf(i8* getelementptr inbounds ([3 x i8], [3 x i8]* @.str.1, i64 0, i64 0), i8* %142)
  br label %148

144:                                              ; preds = %134
  br label %145

145:                                              ; preds = %144
  %146 = load i32, i32* %3, align 4
  %147 = add nsw i32 %146, 1
  store i32 %147, i32* %3, align 4
  br label %17

148:                                              ; preds = %141, %133, %17
  ret i32 0
}

declare dso_local i32 @gets(...) #1

; Function Attrs: nounwind readonly
declare dso_local i64 @strlen(i8*) #2

declare dso_local i32 @printf(i8*, ...) #1


!llvm.module.flags = !{!0}
!llvm.ident = !{!1}

!0 = !{i32 1, !"wchar_size", i32 4}
!1 = !{!"clang version 10.0.0-4ubuntu1 "}
